target datalayout = "e-m:e-p270:32:32-p271:32:32-p272:64:64-i64:64-i128:128-f80:128-n8:16:32:64-S128"
target triple = "x86_64-pc-linux-gnu"

%struct._object = type { %union.anon, ptr }
%union.anon = type { i64 }
%struct._typeobject = type { %struct.PyVarObject, ptr, i64, i64, ptr, i64, ptr, ptr, ptr, ptr, ptr, ptr, ptr, ptr, ptr, ptr, ptr, ptr, ptr, i64, ptr, ptr, ptr, ptr, i64, ptr, ptr, ptr, ptr, ptr, ptr, ptr, ptr, ptr, i64, ptr, ptr, ptr, ptr, ptr, ptr, ptr, ptr, ptr, ptr, ptr, i32, ptr, ptr, i8, i16 }
%struct.PyVarObject = type { %struct._object, i64 }
%struct._longobject = type { %struct._object, %struct._PyLongValue }
%struct._PyLongValue = type { i64, [1 x i32] }

@PyExc_OverflowError = external global ptr, align 8
@PyExc_ValueError = external global ptr, align 8
@.str.79 = private unnamed_addr constant [34 x i8] c"expected a positive input, got %S\00", align 1
@.str.80 = private unnamed_addr constant [34 x i8] c"expected a positive input, got %s\00", align 1

; Function Attrs: inlinehint nounwind uwtable
define internal zeroext i1 @_PyLong_IsPositive(ptr noundef %0) #6 {
  %2 = alloca ptr, align 8
  store ptr %0, ptr %2, align 8, !tbaa !73
  %3 = load ptr, ptr %2, align 8, !tbaa !73
  %4 = getelementptr inbounds nuw %struct._longobject, ptr %3, i32 0, i32 1
  %5 = getelementptr inbounds nuw %struct._PyLongValue, ptr %4, i32 0, i32 0
  %6 = load i64, ptr %5, align 8, !tbaa !75
  %7 = and i64 %6, 3
  %8 = icmp eq i64 %7, 0
  ret i1 %8
}

; Function Attrs: inlinehint nounwind uwtable
define internal i32 @PyType_HasFeature(ptr noundef %0, i64 noundef %1) #6 {
  %3 = alloca ptr, align 8
  %4 = alloca i64, align 8
  %5 = alloca i64, align 8
  store ptr %0, ptr %3, align 8, !tbaa !42
  store i64 %1, ptr %4, align 8, !tbaa !11
  call void @llvm.lifetime.start.p0(i64 8, ptr %5) #10
  %6 = load ptr, ptr %3, align 8, !tbaa !42
  %7 = getelementptr inbounds nuw %struct._typeobject, ptr %6, i32 0, i32 19
  %8 = load i64, ptr %7, align 8, !tbaa !53
  store i64 %8, ptr %5, align 8, !tbaa !11
  %9 = load i64, ptr %5, align 8, !tbaa !11
  %10 = load i64, ptr %4, align 8, !tbaa !11
  %11 = and i64 %9, %10
  %12 = icmp ne i64 %11, 0
  %13 = zext i1 %12 to i32
  call void @llvm.lifetime.end.p0(i64 8, ptr %5) #10
  ret i32 %13
}

; Function Attrs: inlinehint nounwind uwtable
define internal ptr @_Py_TYPE(ptr noundef %0) #6 {
  %2 = alloca ptr, align 8
  store ptr %0, ptr %2, align 8, !tbaa !3
  %3 = load ptr, ptr %2, align 8, !tbaa !3
  %4 = getelementptr inbounds nuw %struct._object, ptr %3, i32 0, i32 1
  %5 = load ptr, ptr %4, align 8, !tbaa !48
  ret ptr %5
}

; Function Attrs: nounwind uwtable
define internal ptr @loghelper(ptr noundef %0, ptr noundef %1) #0 {
  %3 = alloca ptr, align 8
  %4 = alloca ptr, align 8
  %5 = alloca ptr, align 8
  %6 = alloca double, align 8
  %7 = alloca double, align 8
  %8 = alloca i64, align 8
  %9 = alloca i32, align 4
  store ptr %0, ptr %4, align 8, !tbaa !3
  store ptr %1, ptr %5, align 8, !tbaa !8
  %10 = load ptr, ptr %4, align 8, !tbaa !3
  %11 = call ptr @_Py_TYPE(ptr noundef %10)
  %12 = call i32 @PyType_HasFeature(ptr noundef %11, i64 noundef 16777216)
  %13 = icmp ne i32 %12, 0
  br i1 %13, label %14, label %53

14:                                               ; preds = %2
  call void @llvm.lifetime.start.p0(i64 8, ptr %6) #10
  call void @llvm.lifetime.start.p0(i64 8, ptr %7) #10
  call void @llvm.lifetime.start.p0(i64 8, ptr %8) #10
  %15 = load ptr, ptr %4, align 8, !tbaa !3
  %16 = call zeroext i1 @_PyLong_IsPositive(ptr noundef %15)
  br i1 %16, label %21, label %17

17:                                               ; preds = %14
  %18 = load ptr, ptr @PyExc_ValueError, align 8, !tbaa !3
  %19 = load ptr, ptr %4, align 8, !tbaa !3
  %20 = call ptr (ptr, ptr, ...) @PyErr_Format(ptr noundef %18, ptr noundef @.str.79, ptr noundef %19)
  store ptr null, ptr %3, align 8
  store i32 1, ptr %9, align 4
  br label %52

21:                                               ; preds = %14
  %22 = load ptr, ptr %4, align 8, !tbaa !3
  %23 = call double @PyLong_AsDouble(ptr noundef %22)
  store double %23, ptr %6, align 8, !tbaa !13
  %24 = load double, ptr %6, align 8, !tbaa !13
  %25 = fcmp oeq double %24, -1.000000e+00
  br i1 %25, label %26, label %45

26:                                               ; preds = %21
  %27 = call ptr @PyErr_Occurred()
  %28 = icmp ne ptr %27, null
  br i1 %28, label %29, label %45

29:                                               ; preds = %26
  %30 = load ptr, ptr @PyExc_OverflowError, align 8, !tbaa !3
  %31 = call i32 @PyErr_ExceptionMatches(ptr noundef %30)
  %32 = icmp ne i32 %31, 0
  br i1 %32, label %34, label %33

33:                                               ; preds = %29
  store ptr null, ptr %3, align 8
  store i32 1, ptr %9, align 4
  br label %52

34:                                               ; preds = %29
  call void @PyErr_Clear()
  %35 = load ptr, ptr %4, align 8, !tbaa !3
  %36 = call double @_PyLong_Frexp(ptr noundef %35, ptr noundef %8)
  store double %36, ptr %6, align 8, !tbaa !13
  %37 = load ptr, ptr %5, align 8, !tbaa !8
  %38 = load double, ptr %6, align 8, !tbaa !13
  %39 = call double %37(double noundef %38)
  %40 = load ptr, ptr %5, align 8, !tbaa !8
  %41 = call double %40(double noundef 2.000000e+00)
  %42 = load i64, ptr %8, align 8, !tbaa !11
  %43 = sitofp i64 %42 to double
  %44 = call double @llvm.fmuladd.f64(double %41, double %43, double %39)
  store double %44, ptr %7, align 8, !tbaa !13
  br label %49

45:                                               ; preds = %26, %21
  %46 = load ptr, ptr %5, align 8, !tbaa !8
  %47 = load double, ptr %6, align 8, !tbaa !13
  %48 = call double %46(double noundef %47)
  store double %48, ptr %7, align 8, !tbaa !13
  br label %49

49:                                               ; preds = %45, %34
  %50 = load double, ptr %7, align 8, !tbaa !13
  %51 = call ptr @PyFloat_FromDouble(double noundef %50)
  store ptr %51, ptr %3, align 8
  store i32 1, ptr %9, align 4
  br label %52

52:                                               ; preds = %49, %33, %17
  call void @llvm.lifetime.end.p0(i64 8, ptr %8) #10
  call void @llvm.lifetime.end.p0(i64 8, ptr %7) #10
  call void @llvm.lifetime.end.p0(i64 8, ptr %6) #10
  br label %57

53:                                               ; preds = %2
  %54 = load ptr, ptr %4, align 8, !tbaa !3
  %55 = load ptr, ptr %5, align 8, !tbaa !8
  %56 = call ptr @math_1(ptr noundef %54, ptr noundef %55, i32 noundef 0, ptr noundef @.str.80)
  store ptr %56, ptr %3, align 8
  br label %57

57:                                               ; preds = %53, %52
  %58 = load ptr, ptr %3, align 8
  ret ptr %58
}

; Function Attrs: nounwind uwtable
define internal ptr @math_log10(ptr noundef %0, ptr noundef %1) #0 {
  %3 = alloca ptr, align 8
  %4 = alloca ptr, align 8
  store ptr %0, ptr %3, align 8, !tbaa !3
  store ptr %1, ptr %4, align 8, !tbaa !3
  %5 = load ptr, ptr %4, align 8, !tbaa !3
  %6 = call ptr @loghelper(ptr noundef %5, ptr noundef @m_log10)
  ret ptr %6
}