; Function Attrs: nounwind uwtable
define internal ptr @math_log10(ptr readnone captures(none) %0, ptr noundef %1) #0 {
  %3 = alloca i64, align 8
  %4 = getelementptr i8, ptr %1, i64 8
  %.val.i = load ptr, ptr %4, align 8, !tbaa !16
  %5 = getelementptr i8, ptr %.val.i, i64 168
  %.val18.i = load i64, ptr %5, align 8, !tbaa !22
  %6 = and i64 %.val18.i, 16777216
  %.not.i = icmp eq i64 %6, 0
  br i1 %.not.i, label %54, label %7

7:                                                ; preds = %2
  call void @llvm.lifetime.start.p0(i64 8, ptr nonnull %3) #16
  %8 = getelementptr i8, ptr %1, i64 16
  %.val19.i = load i64, ptr %8, align 8, !tbaa !45
  %9 = and i64 %.val19.i, 3
  %10 = icmp eq i64 %9, 0
  br i1 %10, label %14, label %11

11:                                               ; preds = %7
  %12 = load ptr, ptr @PyExc_ValueError, align 8, !tbaa !12
  %13 = tail call ptr (ptr, ptr, ...) @PyErr_Format(ptr noundef %12, ptr noundef nonnull @.str.79, ptr noundef nonnull %1) #16
  br label %53

14:                                               ; preds = %7
  %15 = tail call double @PyLong_AsDouble(ptr noundef nonnull %1) #16
  %16 = fcmp oeq double %15, -1.000000e+00
  br i1 %16, label %17, label %39

17:                                               ; preds = %14
  %18 = tail call ptr @PyErr_Occurred() #16
  %.not16.i = icmp eq ptr %18, null
  br i1 %.not16.i, label %39, label %19

19:                                               ; preds = %17
  %20 = load ptr, ptr @PyExc_OverflowError, align 8, !tbaa !12
  %21 = tail call i32 @PyErr_ExceptionMatches(ptr noundef %20) #16
  %.not17.i = icmp eq i32 %21, 0
  br i1 %.not17.i, label %53, label %22

22:                                               ; preds = %19
  tail call void @PyErr_Clear() #16
  %23 = call double @_PyLong_Frexp(ptr noundef nonnull %1, ptr noundef nonnull %3) #16
  %24 = call double @llvm.fabs.f64(double %23)
  %25 = fcmp ueq double %24, 0x7FF0000000000000
  br i1 %25, label %33, label %26

26:                                               ; preds = %22
  %27 = fcmp ogt double %23, 0.000000e+00
  br i1 %27, label %28, label %30

28:                                               ; preds = %26
  %29 = call double @llvm.log10.f64(double %23), !tbaa !14
  br label %m_log10.exit6

30:                                               ; preds = %26
  %31 = tail call ptr @__errno_location() #17
  store i32 33, ptr %31, align 4, !tbaa !14
  %32 = fcmp oeq double %23, 0.000000e+00
  %..i3 = select i1 %32, double 0xFFF0000000000000, double 0x7FF8000000000000
  br label %m_log10.exit6

33:                                               ; preds = %22
  %or.cond.i5 = fcmp ugt double %23, 0.000000e+00
  br i1 %or.cond.i5, label %m_log10.exit6, label %34

34:                                               ; preds = %33
  %35 = tail call ptr @__errno_location() #17
  store i32 33, ptr %35, align 4, !tbaa !14
  br label %m_log10.exit6

m_log10.exit6:                                    ; preds = %28, %30, %33, %34
  %.0.i4 = phi double [ %29, %28 ], [ 0x7FF8000000000000, %34 ], [ %..i3, %30 ], [ %23, %33 ]
  %36 = load i64, ptr %3, align 8, !tbaa !37
  %37 = sitofp i64 %36 to double
  %38 = call double @llvm.fmuladd.f64(double %37, double 0x3FD34413509F79FF, double %.0.i4)
  br label %m_log10.exit

39:                                               ; preds = %17, %14
  %40 = tail call double @llvm.fabs.f64(double %15)
  %41 = fcmp ueq double %40, 0x7FF0000000000000
  br i1 %41, label %49, label %42

42:                                               ; preds = %39
  %43 = fcmp ogt double %15, 0.000000e+00
  br i1 %43, label %44, label %46

44:                                               ; preds = %42
  %45 = tail call double @llvm.log10.f64(double %15), !tbaa !14
  br label %m_log10.exit

46:                                               ; preds = %42
  %47 = tail call ptr @__errno_location() #17
  store i32 33, ptr %47, align 4, !tbaa !14
  %48 = fcmp oeq double %15, 0.000000e+00
  %..i = select i1 %48, double 0xFFF0000000000000, double 0x7FF8000000000000
  br label %m_log10.exit

49:                                               ; preds = %39
  %or.cond.i = fcmp ugt double %15, 0.000000e+00
  br i1 %or.cond.i, label %m_log10.exit, label %50

50:                                               ; preds = %49
  %51 = tail call ptr @__errno_location() #17
  store i32 33, ptr %51, align 4, !tbaa !14
  br label %m_log10.exit

m_log10.exit:                                     ; preds = %50, %49, %46, %44, %m_log10.exit6
  %.0.i = phi double [ %38, %m_log10.exit6 ], [ %45, %44 ], [ 0x7FF8000000000000, %50 ], [ %..i, %46 ], [ %15, %49 ]
  %52 = call ptr @PyFloat_FromDouble(double noundef %.0.i) #16
  br label %53

53:                                               ; preds = %m_log10.exit, %19, %11
  %.015.i = phi ptr [ %52, %m_log10.exit ], [ null, %11 ], [ null, %19 ]
  call void @llvm.lifetime.end.p0(i64 8, ptr nonnull %3) #16
  br label %loghelper.exit

54:                                               ; preds = %2
  %55 = tail call fastcc ptr @math_1(ptr noundef nonnull %1, ptr noundef nonnull @m_log10, i32 noundef 0, ptr noundef nonnull @.str.80)
  br label %loghelper.exit

loghelper.exit:                                   ; preds = %53, %54
  %.1.i = phi ptr [ %.015.i, %53 ], [ %55, %54 ]
  ret ptr %.1.i
}